target datalayout = "e-m:e-p270:32:32-p271:32:32-p272:64:64-i64:64-i128:128-f80:128-n8:16:32:64-S128"
target triple = "x86_64-pc-linux-gnu"

@.str.58 = private unnamed_addr constant [11 x i8] c"0123456789\00", align 1

; Function Attrs: nounwind uwtable
define internal ptr @format_int(ptr noundef %0, i64 noundef %1) #0 {
  %3 = alloca ptr, align 8
  %4 = alloca i64, align 8
  %5 = alloca i64, align 8
  store ptr %0, ptr %3, align 8
  store i64 %1, ptr %4, align 8
  %6 = load i64, ptr %4, align 8
  %7 = icmp slt i64 %6, 0
  br i1 %7, label %8, label %17

8:                                                ; preds = %2
  %9 = load i64, ptr %4, align 8
  %10 = icmp eq i64 %9, -9223372036854775808
  br i1 %10, label %11, label %12

11:                                               ; preds = %8
  br label %15

12:                                               ; preds = %8
  %13 = load i64, ptr %4, align 8
  %14 = sub nsw i64 0, %13
  br label %15

15:                                               ; preds = %12, %11
  %16 = phi i64 [ -9223372036854775808, %11 ], [ %14, %12 ]
  store i64 %16, ptr %5, align 8
  br label %19

17:                                               ; preds = %2
  %18 = load i64, ptr %4, align 8
  store i64 %18, ptr %5, align 8
  br label %19

19:                                               ; preds = %17, %15
  br label %20

20:                                               ; preds = %27, %19
  %21 = load i64, ptr %5, align 8
  %22 = urem i64 %21, 10
  %23 = getelementptr inbounds [11 x i8], ptr @.str.58, i64 0, i64 %22
  %24 = load i8, ptr %23, align 1
  %25 = load ptr, ptr %3, align 8
  %26 = getelementptr inbounds i8, ptr %25, i32 -1
  store ptr %26, ptr %3, align 8
  store i8 %24, ptr %26, align 1
  br label %27

27:                                               ; preds = %20
  %28 = load i64, ptr %5, align 8
  %29 = udiv i64 %28, 10
  store i64 %29, ptr %5, align 8
  %30 = icmp ne i64 %29, 0
  br i1 %30, label %20, label %31, !llvm.loop !21

31:                                               ; preds = %27
  %32 = load i64, ptr %4, align 8
  %33 = icmp slt i64 %32, 0
  br i1 %33, label %34, label %37

34:                                               ; preds = %31
  %35 = load ptr, ptr %3, align 8
  %36 = getelementptr inbounds i8, ptr %35, i32 -1
  store ptr %36, ptr %3, align 8
  store i8 45, ptr %36, align 1
  br label %37

37:                                               ; preds = %34, %31
  %38 = load ptr, ptr %3, align 8
  ret ptr %38
}

; Function Attrs: nounwind uwtable
define internal void @add_pax_attr_binary(ptr noundef %0, ptr noundef %1, ptr noundef %2, i64 noundef %3) #0 {
  %5 = alloca ptr, align 8
  %6 = alloca ptr, align 8
  %7 = alloca ptr, align 8
  %8 = alloca i64, align 8
  %9 = alloca i32, align 4
  %10 = alloca i32, align 4
  %11 = alloca i32, align 4
  %12 = alloca i32, align 4
  %13 = alloca [13 x i8], align 1
  store ptr %0, ptr %5, align 8
  store ptr %1, ptr %6, align 8
  store ptr %2, ptr %7, align 8
  store i64 %3, ptr %8, align 8
  %14 = load ptr, ptr %6, align 8
  %15 = call i64 @strlen(ptr noundef %14) #9
  %16 = trunc i64 %15 to i32
  %17 = add nsw i32 1, %16
  %18 = add nsw i32 %17, 1
  %19 = load i64, ptr %8, align 8
  %20 = trunc i64 %19 to i32
  %21 = add nsw i32 %18, %20
  %22 = add nsw i32 %21, 1
  store i32 %22, ptr %11, align 4
  store i32 1, ptr %12, align 4
  store i32 0, ptr %9, align 4
  %23 = load i32, ptr %11, align 4
  store i32 %23, ptr %10, align 4
  br label %24

24:                                               ; preds = %27, %4
  %25 = load i32, ptr %10, align 4
  %26 = icmp sgt i32 %25, 0
  br i1 %26, label %27, label %34

27:                                               ; preds = %24
  %28 = load i32, ptr %10, align 4
  %29 = sdiv i32 %28, 10
  store i32 %29, ptr %10, align 4
  %30 = load i32, ptr %9, align 4
  %31 = add nsw i32 %30, 1
  store i32 %31, ptr %9, align 4
  %32 = load i32, ptr %12, align 4
  %33 = mul nsw i32 %32, 10
  store i32 %33, ptr %12, align 4
  br label %24, !llvm.loop !20

34:                                               ; preds = %24
  %35 = load i32, ptr %11, align 4
  %36 = load i32, ptr %9, align 4
  %37 = add nsw i32 %35, %36
  %38 = load i32, ptr %12, align 4
  %39 = icmp sge i32 %37, %38
  br i1 %39, label %40, label %43

40:                                               ; preds = %34
  %41 = load i32, ptr %9, align 4
  %42 = add nsw i32 %41, 1
  store i32 %42, ptr %9, align 4
  br label %43

43:                                               ; preds = %40, %34
  %44 = getelementptr inbounds [13 x i8], ptr %13, i64 0, i64 12
  store i8 0, ptr %44, align 1
  %45 = load ptr, ptr %5, align 8
  %46 = getelementptr inbounds [13 x i8], ptr %13, i64 0, i64 0
  %47 = getelementptr inbounds i8, ptr %46, i64 13
  %48 = getelementptr inbounds i8, ptr %47, i64 -1
  %49 = load i32, ptr %11, align 4
  %50 = load i32, ptr %9, align 4
  %51 = add nsw i32 %49, %50
  %52 = sext i32 %51 to i64
  %53 = call ptr @format_int(ptr noundef %48, i64 noundef %52)
  %54 = call ptr @archive_strcat(ptr noundef %45, ptr noundef %53)
  %55 = load ptr, ptr %5, align 8
  %56 = call ptr @archive_strappend_char(ptr noundef %55, i8 noundef signext 32)
  %57 = load ptr, ptr %5, align 8
  %58 = load ptr, ptr %6, align 8
  %59 = call ptr @archive_strcat(ptr noundef %57, ptr noundef %58)
  %60 = load ptr, ptr %5, align 8
  %61 = call ptr @archive_strappend_char(ptr noundef %60, i8 noundef signext 61)
  %62 = load ptr, ptr %5, align 8
  %63 = load ptr, ptr %7, align 8
  %64 = load i64, ptr %8, align 8
  %65 = call ptr @archive_array_append(ptr noundef %62, ptr noundef %63, i64 noundef %64)
  %66 = load ptr, ptr %5, align 8
  %67 = call ptr @archive_strappend_char(ptr noundef %66, i8 noundef signext 10)
  ret void
}