; Function Attrs: nounwind uwtable
define internal fastcc void @add_pax_attr_binary(ptr noundef %0, ptr noundef %1, ptr noundef %2, i64 noundef %3) unnamed_addr #0 {
  %5 = alloca [13 x i8], align 1
  %6 = tail call i64 @strlen(ptr noundef nonnull dereferenceable(1) %1) #17
  %7 = trunc i64 %6 to i32
  %8 = trunc i64 %3 to i32
  %9 = add i32 %8, 3
  %10 = add i32 %9, %7
  %11 = icmp sgt i32 %10, 0
  br i1 %11, label %.lr.ph, label %._crit_edge

.lr.ph:                                           ; preds = %4, %.lr.ph
  %.025 = phi i32 [ %14, %.lr.ph ], [ 1, %4 ]
  %.02124 = phi i32 [ %13, %.lr.ph ], [ 0, %4 ]
  %.02223 = phi i32 [ %12, %.lr.ph ], [ %10, %4 ]
  %12 = udiv i32 %.02223, 10
  %13 = add nuw nsw i32 %.02124, 1
  %14 = mul nuw nsw i32 %.025, 10
  %.not27 = icmp samesign ult i32 %.02223, 10
  br i1 %.not27, label %._crit_edge, label %.lr.ph, !llvm.loop !24

._crit_edge:                                      ; preds = %.lr.ph, %4
  %.021.lcssa = phi i32 [ 0, %4 ], [ %13, %.lr.ph ]
  %.0.lcssa = phi i32 [ 1, %4 ], [ %14, %.lr.ph ]
  %15 = add i32 %.021.lcssa, %10
  %.not = icmp sge i32 %15, %.0.lcssa
  %16 = zext i1 %.not to i32
  %17 = getelementptr inbounds nuw i8, ptr %5, i64 12
  store i8 0, ptr %17, align 1
  %18 = add i32 %15, %16
  %19 = tail call i32 @llvm.abs.i32(i32 %18, i1 false)
  %.0.i = zext i32 %19 to i64
  br label %20

20:                                               ; preds = %20, %._crit_edge
  %.09.i = phi ptr [ %17, %._crit_edge ], [ %24, %20 ]
  %.1.i = phi i64 [ %.0.i, %._crit_edge ], [ %25, %20 ]
  %21 = urem i64 %.1.i, 10
  %22 = getelementptr inbounds nuw [11 x i8], ptr @.str.58, i64 0, i64 %21
  %23 = load i8, ptr %22, align 1
  %24 = getelementptr inbounds i8, ptr %.09.i, i64 -1
  store i8 %23, ptr %24, align 1
  %25 = udiv i64 %.1.i, 10
  %.not.i = icmp samesign ult i64 %.1.i, 10
  br i1 %.not.i, label %26, label %20, !llvm.loop !17

26:                                               ; preds = %20
  %27 = icmp slt i32 %18, 0
  br i1 %27, label %28, label %format_int.exit

28:                                               ; preds = %26
  %29 = getelementptr inbounds i8, ptr %.09.i, i64 -2
  store i8 45, ptr %29, align 1
  br label %format_int.exit

format_int.exit:                                  ; preds = %26, %28
  %.110.i = phi ptr [ %29, %28 ], [ %24, %26 ]
  %30 = call ptr @archive_strcat(ptr noundef %0, ptr noundef nonnull %.110.i) #15
  %31 = call ptr @archive_strappend_char(ptr noundef %0, i8 noundef signext 32) #15
  %32 = call ptr @archive_strcat(ptr noundef %0, ptr noundef nonnull %1) #15
  %33 = call ptr @archive_strappend_char(ptr noundef %0, i8 noundef signext 61) #15
  %34 = call ptr @archive_array_append(ptr noundef %0, ptr noundef %2, i64 noundef %3) #15
  %35 = call ptr @archive_strappend_char(ptr noundef %0, i8 noundef signext 10) #15
  ret void
}